target datalayout = "e-m:e-p270:32:32-p271:32:32-p272:64:64-i64:64-i128:128-f80:128-n8:16:32:64-S128"
target triple = "x86_64-pc-linux-gnu"

%"class.nlsat::atom" = type { i32, i32, i32, i32 }
%"class.nlsat::root_atom" = type { %"class.nlsat::atom", i32, i32, ptr }

; Function Attrs: mustprogress nounwind uwtable
define hidden noundef zeroext i1 @_ZNK5nlsat9root_atom7eq_procclEPKS0_S3_(ptr noundef nonnull align 1 dereferenceable(1) %0, ptr noundef %1, ptr noundef %2) #4 align 2 {
  %4 = alloca ptr, align 8
  %5 = alloca ptr, align 8
  %6 = alloca ptr, align 8
  store ptr %0, ptr %4, align 8, !tbaa !56
  store ptr %1, ptr %5, align 8, !tbaa !48
  store ptr %2, ptr %6, align 8, !tbaa !48
  %7 = load ptr, ptr %5, align 8, !tbaa !48
  %8 = getelementptr inbounds nuw %"class.nlsat::atom", ptr %7, i32 0, i32 0
  %9 = load i32, ptr %8, align 8, !tbaa !34
  %10 = load ptr, ptr %6, align 8, !tbaa !48
  %11 = getelementptr inbounds nuw %"class.nlsat::atom", ptr %10, i32 0, i32 0
  %12 = load i32, ptr %11, align 8, !tbaa !34
  %13 = icmp eq i32 %9, %12
  br i1 %13, label %14, label %38

14:                                               ; preds = %3
  %15 = load ptr, ptr %5, align 8, !tbaa !48
  %16 = getelementptr inbounds nuw %"class.nlsat::root_atom", ptr %15, i32 0, i32 1
  %17 = load i32, ptr %16, align 8, !tbaa !50
  %18 = load ptr, ptr %6, align 8, !tbaa !48
  %19 = getelementptr inbounds nuw %"class.nlsat::root_atom", ptr %18, i32 0, i32 1
  %20 = load i32, ptr %19, align 8, !tbaa !50
  %21 = icmp eq i32 %17, %20
  br i1 %21, label %22, label %38

22:                                               ; preds = %14
  %23 = load ptr, ptr %5, align 8, !tbaa !48
  %24 = getelementptr inbounds nuw %"class.nlsat::root_atom", ptr %23, i32 0, i32 2
  %25 = load i32, ptr %24, align 4, !tbaa !52
  %26 = load ptr, ptr %6, align 8, !tbaa !48
  %27 = getelementptr inbounds nuw %"class.nlsat::root_atom", ptr %26, i32 0, i32 2
  %28 = load i32, ptr %27, align 4, !tbaa !52
  %29 = icmp eq i32 %25, %28
  br i1 %29, label %30, label %38

30:                                               ; preds = %22
  %31 = load ptr, ptr %5, align 8, !tbaa !48
  %32 = getelementptr inbounds nuw %"class.nlsat::root_atom", ptr %31, i32 0, i32 3
  %33 = load ptr, ptr %32, align 8, !tbaa !53
  %34 = load ptr, ptr %6, align 8, !tbaa !48
  %35 = getelementptr inbounds nuw %"class.nlsat::root_atom", ptr %34, i32 0, i32 3
  %36 = load ptr, ptr %35, align 8, !tbaa !53
  %37 = icmp eq ptr %33, %36
  br label %38

38:                                               ; preds = %30, %22, %14, %3
  %39 = phi i1 [ false, %22 ], [ false, %14 ], [ false, %3 ], [ %37, %30 ]
  ret i1 %39
}