; Function Attrs: mustprogress nofree norecurse nosync nounwind willreturn memory(argmem: read) uwtable
define hidden noundef zeroext i1 @_ZNK5nlsat9root_atom7eq_procclEPKS0_S3_(ptr noundef nonnull readnone align 1 captures(none) dereferenceable(1) %0, ptr noundef readonly captures(none) %1, ptr noundef readonly captures(none) %2) local_unnamed_addr #6 align 2 {
  %4 = load i32, ptr %1, align 8, !tbaa !3
  %5 = load i32, ptr %2, align 8, !tbaa !3
  %6 = icmp eq i32 %4, %5
  br i1 %6, label %7, label %25

7:                                                ; preds = %3
  %8 = getelementptr inbounds nuw i8, ptr %1, i64 16
  %9 = load i32, ptr %8, align 8, !tbaa !25
  %10 = getelementptr inbounds nuw i8, ptr %2, i64 16
  %11 = load i32, ptr %10, align 8, !tbaa !25
  %12 = icmp eq i32 %9, %11
  br i1 %12, label %13, label %25

13:                                               ; preds = %7
  %14 = getelementptr inbounds nuw i8, ptr %1, i64 20
  %15 = load i32, ptr %14, align 4, !tbaa !27
  %16 = getelementptr inbounds nuw i8, ptr %2, i64 20
  %17 = load i32, ptr %16, align 4, !tbaa !27
  %18 = icmp eq i32 %15, %17
  br i1 %18, label %19, label %25

19:                                               ; preds = %13
  %20 = getelementptr inbounds nuw i8, ptr %1, i64 24
  %21 = load ptr, ptr %20, align 8, !tbaa !28
  %22 = getelementptr inbounds nuw i8, ptr %2, i64 24
  %23 = load ptr, ptr %22, align 8, !tbaa !28
  %24 = icmp eq ptr %21, %23
  br label %25

25:                                               ; preds = %19, %13, %7, %3
  %26 = phi i1 [ false, %13 ], [ false, %7 ], [ false, %3 ], [ %24, %19 ]
  ret i1 %26
}